target datalayout = "e-m:e-p270:32:32-p271:32:32-p272:64:64-i64:64-i128:128-f80:128-n8:16:32:64-S128"
target triple = "x86_64-pc-linux-gnu"

%struct.H5D_shared_t = type { i64, i8, i64, ptr, ptr, i64, i64, %struct.H5D_dcpl_cache_t, %struct.H5O_layout_t, i8, i32, [32 x i64], [32 x i64], [32 x i64], %struct.anon.6, %struct.H5D_append_flush_t, ptr, ptr }
%struct.H5D_dcpl_cache_t = type { %struct.H5O_fill_t, %struct.H5O_pline_t, %struct.H5O_efl_t }
%struct.H5O_fill_t = type { %struct.H5O_shared_t, i32, ptr, i64, ptr, i32, i32, i8 }
%struct.H5O_shared_t = type { i32, ptr, i32, %union.anon }
%union.anon = type { %struct.H5O_mesg_loc_t }
%struct.H5O_mesg_loc_t = type { i32, i64 }
%struct.H5O_pline_t = type { %struct.H5O_shared_t, i32, i64, i64, ptr }
%struct.H5O_efl_t = type { i64, i64, i64, ptr }
%struct.H5O_layout_t = type { i32, i32, ptr, %union.anon.0, %struct.H5O_storage_t }
%union.anon.0 = type { %struct.H5O_layout_chunk_t }
%struct.H5O_layout_chunk_t = type { i32, i8, i32, [33 x i32], i32, i32, i64, i64, [33 x i64], [33 x i64], [33 x i64], [33 x i64], %union.anon.1 }
%union.anon.1 = type { %struct.H5O_layout_chunk_earray_t }
%struct.H5O_layout_chunk_earray_t = type { %struct.anon.2, i32, [33 x i32], [33 x i64], [33 x i64] }
%struct.anon.2 = type { i8, i8, i8, i8, i8 }
%struct.H5O_storage_t = type { i32, %union.anon.4 }
%union.anon.4 = type { %struct.H5O_storage_virtual_t }
%struct.H5O_storage_virtual_t = type { %struct.H5HG_t, i64, ptr, i64, [32 x i64], i32, i64, i64, i64, i8 }
%struct.H5HG_t = type { i64, i64 }
%struct.anon.6 = type { %struct.H5D_rdcdc_t, %struct.H5D_rdcc_t }
%struct.H5D_rdcdc_t = type { ptr, i64, i64, i64, i8 }
%struct.H5D_rdcc_t = type { %struct.anon.7, i64, i64, double, ptr, ptr, ptr, i64, i32, %struct.H5D_chunk_cached_t, ptr, ptr, ptr, ptr, [32 x i64], [32 x i64], [32 x i32] }
%struct.anon.7 = type { i32, i32, i32, i32 }
%struct.H5D_chunk_cached_t = type { i8, [33 x i64], i64, i32, i64, i32 }
%struct.H5D_append_flush_t = type { i32, [32 x i64], ptr, ptr }
%struct.H5D_t = type { %struct.H5O_loc_t, %struct.H5G_name_t, ptr }
%struct.H5O_loc_t = type { ptr, i64, i8 }
%struct.H5G_name_t = type { ptr, ptr, i32 }
%struct.H5D_layout_ops_t = type { ptr, ptr, ptr, ptr, ptr, ptr, ptr, ptr, ptr, ptr, ptr, ptr, ptr }

@H5D_init_g = external global i8, align 1
@H5_libterm_g = external global i8, align 1
@.str.2 = private unnamed_addr constant [100 x i8] c"generated/home/dtcxzyw/WorkSpace/Projects/compilers/llvm-opt-benchmark/bench/hdf5/hdf5/src/H5Dint.c\00", align 1
@H5E_DATASET_g = external global i64, align 8
@H5E_WRITEERROR_g = external global i64, align 8
@.str.65 = private unnamed_addr constant [36 x i8] c"unable to flush cached dataset info\00", align 1
@H5E_CANTFLUSH_g = external global i64, align 8
@__func__.H5D__flush_real = private unnamed_addr constant [16 x i8] c"H5D__flush_real\00", align 1
@.str.121 = private unnamed_addr constant [25 x i8] c"unable to flush raw data\00", align 1
@__func__.H5D__flush_all_cb = private unnamed_addr constant [18 x i8] c"H5D__flush_all_cb\00", align 1

; Function Attrs: nounwind uwtable
define i32 @H5D__flush_real(ptr noundef %0) #0 {
  %2 = alloca ptr, align 8
  %3 = alloca i32, align 4
  %4 = alloca i64, align 8
  %5 = alloca i8, align 1
  store ptr %0, ptr %2, align 8, !tbaa !49
  call void @llvm.lifetime.start.p0(i64 4, ptr %3) #12
  store i32 0, ptr %3, align 4, !tbaa !3
  call void @llvm.lifetime.start.p0(i64 8, ptr %4) #12
  store i64 -1, ptr %4, align 8, !tbaa !11
  call void @llvm.lifetime.start.p0(i64 1, ptr %5) #12
  store i8 0, ptr %5, align 1, !tbaa !7
  %6 = load ptr, ptr %2, align 8, !tbaa !49
  %7 = getelementptr inbounds nuw %struct.H5D_t, ptr %6, i32 0, i32 0
  %8 = getelementptr inbounds nuw %struct.H5O_loc_t, ptr %7, i32 0, i32 1
  %9 = load i64, ptr %8, align 8, !tbaa !97
  call void @H5AC_tag(i64 noundef %9, ptr noundef %4)
  %10 = load i8, ptr @H5D_init_g, align 1, !tbaa !7, !range !9, !noundef !10
  %11 = trunc i8 %10 to i1
  br i1 %11, label %16, label %12

12:                                               ; preds = %1
  %13 = load i8, ptr @H5_libterm_g, align 1, !tbaa !7, !range !9, !noundef !10
  %14 = trunc i8 %13 to i1
  %15 = xor i1 %14, true
  br label %16

16:                                               ; preds = %12, %1
  %17 = phi i1 [ true, %1 ], [ %15, %12 ]
  %18 = xor i1 %17, true
  %19 = xor i1 %18, true
  %20 = zext i1 %19 to i32
  %21 = sext i32 %20 to i64
  %22 = call i64 @llvm.expect.i64(i64 %21, i64 1)
  %23 = icmp ne i64 %22, 0
  br i1 %23, label %24, label %75

24:                                               ; preds = %16
  %25 = load ptr, ptr %2, align 8, !tbaa !49
  %26 = getelementptr inbounds nuw %struct.H5D_t, ptr %25, i32 0, i32 2
  %27 = load ptr, ptr %26, align 8, !tbaa !61
  %28 = getelementptr inbounds nuw %struct.H5D_shared_t, ptr %27, i32 0, i32 1
  %29 = load i8, ptr %28, align 8, !tbaa !122, !range !9, !noundef !10
  %30 = trunc i8 %29 to i1
  br i1 %30, label %73, label %31

31:                                               ; preds = %24
  %32 = load ptr, ptr %2, align 8, !tbaa !49
  %33 = getelementptr inbounds nuw %struct.H5D_t, ptr %32, i32 0, i32 2
  %34 = load ptr, ptr %33, align 8, !tbaa !61
  %35 = getelementptr inbounds nuw %struct.H5D_shared_t, ptr %34, i32 0, i32 8
  %36 = getelementptr inbounds nuw %struct.H5O_layout_t, ptr %35, i32 0, i32 2
  %37 = load ptr, ptr %36, align 8, !tbaa !70
  %38 = getelementptr inbounds nuw %struct.H5D_layout_ops_t, ptr %37, i32 0, i32 10
  %39 = load ptr, ptr %38, align 8, !tbaa !137
  %40 = icmp ne ptr %39, null
  br i1 %40, label %41, label %72

41:                                               ; preds = %31
  %42 = load ptr, ptr %2, align 8, !tbaa !49
  %43 = getelementptr inbounds nuw %struct.H5D_t, ptr %42, i32 0, i32 2
  %44 = load ptr, ptr %43, align 8, !tbaa !61
  %45 = getelementptr inbounds nuw %struct.H5D_shared_t, ptr %44, i32 0, i32 8
  %46 = getelementptr inbounds nuw %struct.H5O_layout_t, ptr %45, i32 0, i32 2
  %47 = load ptr, ptr %46, align 8, !tbaa !70
  %48 = getelementptr inbounds nuw %struct.H5D_layout_ops_t, ptr %47, i32 0, i32 10
  %49 = load ptr, ptr %48, align 8, !tbaa !137
  %50 = load ptr, ptr %2, align 8, !tbaa !49
  %51 = call i32 %49(ptr noundef %50)
  %52 = icmp slt i32 %51, 0
  br i1 %52, label %53, label %72

53:                                               ; preds = %41
  br label %54

54:                                               ; preds = %53
  br label %55

55:                                               ; preds = %54
  br label %56

56:                                               ; preds = %55
  %57 = load i64, ptr @H5E_DATASET_g, align 8, !tbaa !11
  %58 = load i64, ptr @H5E_CANTFLUSH_g, align 8, !tbaa !11
  %59 = call i32 (ptr, ptr, i32, i64, i64, ptr, ...) @H5E_printf_stack(ptr noundef @.str.2, ptr noundef @__func__.H5D__flush_real, i32 noundef 3288, i64 noundef %57, i64 noundef %58, ptr noundef @.str.121)
  br label %60

60:                                               ; preds = %56
  br label %61

61:                                               ; preds = %60
  store i8 1, ptr %5, align 1, !tbaa !7
  %62 = load i8, ptr %5, align 1, !tbaa !7, !range !9, !noundef !10
  %63 = trunc i8 %62 to i1
  %64 = zext i1 %63 to i8
  store i8 %64, ptr %5, align 1, !tbaa !7
  br label %65

65:                                               ; preds = %61
  br label %66

66:                                               ; preds = %65
  br label %67

67:                                               ; preds = %66
  store i32 -1, ptr %3, align 4, !tbaa !3
  br label %74

68:                                               ; No predecessors!
  br label %69

69:                                               ; preds = %68
  br label %70

70:                                               ; preds = %69
  br label %71

71:                                               ; preds = %70
  br label %72

72:                                               ; preds = %71, %41, %31
  br label %73

73:                                               ; preds = %72, %24
  br label %74

74:                                               ; preds = %73, %67
  br label %75

75:                                               ; preds = %74, %16
  %76 = load i64, ptr %4, align 8, !tbaa !11
  call void @H5AC_tag(i64 noundef %76, ptr noundef null)
  %77 = load i32, ptr %3, align 4, !tbaa !3
  call void @llvm.lifetime.end.p0(i64 1, ptr %5) #12
  call void @llvm.lifetime.end.p0(i64 8, ptr %4) #12
  call void @llvm.lifetime.end.p0(i64 4, ptr %3) #12
  ret i32 %77
}

; Function Attrs: nounwind uwtable
define internal i32 @H5D__flush_all_cb(ptr noundef %0, i64 noundef %1, ptr noundef %2) #0 {
  %4 = alloca ptr, align 8
  %5 = alloca i64, align 8
  %6 = alloca ptr, align 8
  %7 = alloca ptr, align 8
  %8 = alloca ptr, align 8
  %9 = alloca i32, align 4
  %10 = alloca i8, align 1
  store ptr %0, ptr %4, align 8, !tbaa !60
  store i64 %1, ptr %5, align 8, !tbaa !11
  store ptr %2, ptr %6, align 8, !tbaa !60
  call void @llvm.lifetime.start.p0(i64 8, ptr %7) #12
  %11 = load ptr, ptr %4, align 8, !tbaa !60
  store ptr %11, ptr %7, align 8, !tbaa !49
  call void @llvm.lifetime.start.p0(i64 8, ptr %8) #12
  %12 = load ptr, ptr %6, align 8, !tbaa !60
  store ptr %12, ptr %8, align 8, !tbaa !73
  call void @llvm.lifetime.start.p0(i64 4, ptr %9) #12
  store i32 0, ptr %9, align 4, !tbaa !3
  call void @llvm.lifetime.start.p0(i64 1, ptr %10) #12
  store i8 0, ptr %10, align 1, !tbaa !7
  %13 = load i8, ptr @H5D_init_g, align 1, !tbaa !7, !range !9, !noundef !10
  %14 = trunc i8 %13 to i1
  br i1 %14, label %19, label %15

15:                                               ; preds = %3
  %16 = load i8, ptr @H5_libterm_g, align 1, !tbaa !7, !range !9, !noundef !10
  %17 = trunc i8 %16 to i1
  %18 = xor i1 %17, true
  br label %19

19:                                               ; preds = %15, %3
  %20 = phi i1 [ true, %3 ], [ %18, %15 ]
  %21 = xor i1 %20, true
  %22 = xor i1 %21, true
  %23 = zext i1 %22 to i32
  %24 = sext i32 %23 to i64
  %25 = call i64 @llvm.expect.i64(i64 %24, i64 1)
  %26 = icmp ne i64 %25, 0
  br i1 %26, label %27, label %60

27:                                               ; preds = %19
  %28 = load ptr, ptr %8, align 8, !tbaa !73
  %29 = load ptr, ptr %7, align 8, !tbaa !49
  %30 = getelementptr inbounds nuw %struct.H5D_t, ptr %29, i32 0, i32 0
  %31 = getelementptr inbounds nuw %struct.H5O_loc_t, ptr %30, i32 0, i32 0
  %32 = load ptr, ptr %31, align 8, !tbaa !96
  %33 = icmp eq ptr %28, %32
  br i1 %33, label %34, label %58

34:                                               ; preds = %27
  %35 = load ptr, ptr %7, align 8, !tbaa !49
  %36 = call i32 @H5D__flush_real(ptr noundef %35)
  %37 = icmp slt i32 %36, 0
  br i1 %37, label %38, label %57

38:                                               ; preds = %34
  br label %39

39:                                               ; preds = %38
  br label %40

40:                                               ; preds = %39
  br label %41

41:                                               ; preds = %40
  %42 = load i64, ptr @H5E_DATASET_g, align 8, !tbaa !11
  %43 = load i64, ptr @H5E_WRITEERROR_g, align 8, !tbaa !11
  %44 = call i32 (ptr, ptr, i32, i64, i64, ptr, ...) @H5E_printf_stack(ptr noundef @.str.2, ptr noundef @__func__.H5D__flush_all_cb, i32 noundef 3572, i64 noundef %42, i64 noundef %43, ptr noundef @.str.65)
  br label %45

45:                                               ; preds = %41
  br label %46

46:                                               ; preds = %45
  store i8 1, ptr %10, align 1, !tbaa !7
  %47 = load i8, ptr %10, align 1, !tbaa !7, !range !9, !noundef !10
  %48 = trunc i8 %47 to i1
  %49 = zext i1 %48 to i8
  store i8 %49, ptr %10, align 1, !tbaa !7
  br label %50

50:                                               ; preds = %46
  br label %51

51:                                               ; preds = %50
  br label %52

52:                                               ; preds = %51
  store i32 -1, ptr %9, align 4, !tbaa !3
  br label %59

53:                                               ; No predecessors!
  br label %54

54:                                               ; preds = %53
  br label %55

55:                                               ; preds = %54
  br label %56

56:                                               ; preds = %55
  br label %57

57:                                               ; preds = %56, %34
  br label %58

58:                                               ; preds = %57, %27
  br label %59

59:                                               ; preds = %58, %52
  br label %60

60:                                               ; preds = %59, %19
  %61 = load i32, ptr %9, align 4, !tbaa !3
  call void @llvm.lifetime.end.p0(i64 1, ptr %10) #12
  call void @llvm.lifetime.end.p0(i64 4, ptr %9) #12
  call void @llvm.lifetime.end.p0(i64 8, ptr %8) #12
  call void @llvm.lifetime.end.p0(i64 8, ptr %7) #12
  ret i32 %61
}