; Function Attrs: nounwind uwtable
define internal range(i32 -1, 1) i32 @H5D__flush_all_cb(ptr noundef %0, i64 %1, ptr noundef readnone captures(address) %2) #0 {
  %4 = alloca i64, align 8
  %5 = load i8, ptr @H5D_init_g, align 1, !tbaa !3, !range !7, !noundef !8
  %6 = trunc nuw i8 %5 to i1
  %7 = load i8, ptr @H5_libterm_g, align 1, !range !7
  %8 = trunc nuw i8 %7 to i1
  %9 = xor i1 %8, true
  %10 = select i1 %6, i1 true, i1 %9
  br i1 %10, label %11, label %46, !prof !9

11:                                               ; preds = %3
  %12 = load ptr, ptr %0, align 8, !tbaa !81
  %13 = icmp eq ptr %2, %12
  br i1 %13, label %14, label %46

14:                                               ; preds = %11
  call void @llvm.lifetime.start.p0(i64 8, ptr nonnull %4) #12
  store i64 -1, ptr %4, align 8, !tbaa !10
  %15 = getelementptr inbounds nuw i8, ptr %0, i64 8
  %16 = load i64, ptr %15, align 8, !tbaa !82
  call void @H5AC_tag(i64 noundef %16, ptr noundef nonnull %4) #12
  %17 = load i8, ptr @H5D_init_g, align 1, !tbaa !3, !range !7, !noundef !8
  %18 = trunc nuw i8 %17 to i1
  %19 = load i8, ptr @H5_libterm_g, align 1, !range !7
  %20 = trunc nuw i8 %19 to i1
  %21 = xor i1 %20, true
  %22 = select i1 %18, i1 true, i1 %21
  br i1 %22, label %23, label %H5D__flush_real.exit.thread, !prof !9

23:                                               ; preds = %14
  %24 = getelementptr inbounds nuw i8, ptr %0, i64 48
  %25 = load ptr, ptr %24, align 8, !tbaa !52
  %26 = getelementptr inbounds nuw i8, ptr %25, i64 8
  %27 = load i8, ptr %26, align 8, !tbaa !101, !range !7, !noundef !8
  %28 = trunc nuw i8 %27 to i1
  br i1 %28, label %H5D__flush_real.exit.thread, label %29

29:                                               ; preds = %23
  %30 = getelementptr inbounds nuw i8, ptr %25, i64 256
  %31 = load ptr, ptr %30, align 8, !tbaa !62
  %32 = getelementptr inbounds nuw i8, ptr %31, i64 80
  %33 = load ptr, ptr %32, align 8, !tbaa !102
  %.not.i = icmp eq ptr %33, null
  br i1 %.not.i, label %H5D__flush_real.exit.thread, label %34

34:                                               ; preds = %29
  %35 = call i32 %33(ptr noundef nonnull %0) #12
  %36 = icmp slt i32 %35, 0
  br i1 %36, label %38, label %H5D__flush_real.exit.thread

H5D__flush_real.exit.thread:                      ; preds = %23, %34, %29, %14
  %37 = load i64, ptr %4, align 8, !tbaa !10
  call void @H5AC_tag(i64 noundef %37, ptr noundef null) #12
  call void @llvm.lifetime.end.p0(i64 8, ptr nonnull %4) #12
  br label %46

38:                                               ; preds = %34
  %39 = load i64, ptr @H5E_DATASET_g, align 8, !tbaa !10
  %40 = load i64, ptr @H5E_CANTFLUSH_g, align 8, !tbaa !10
  %41 = call i32 (ptr, ptr, i32, i64, i64, ptr, ...) @H5E_printf_stack(ptr noundef nonnull @.str.2, ptr noundef nonnull @__func__.H5D__flush_real, i32 noundef 3288, i64 noundef %39, i64 noundef %40, ptr noundef nonnull @.str.121) #12
  %42 = load i64, ptr %4, align 8, !tbaa !10
  call void @H5AC_tag(i64 noundef %42, ptr noundef null) #12
  call void @llvm.lifetime.end.p0(i64 8, ptr nonnull %4) #12
  %43 = load i64, ptr @H5E_DATASET_g, align 8, !tbaa !10
  %44 = load i64, ptr @H5E_WRITEERROR_g, align 8, !tbaa !10
  %45 = call i32 (ptr, ptr, i32, i64, i64, ptr, ...) @H5E_printf_stack(ptr noundef nonnull @.str.2, ptr noundef nonnull @__func__.H5D__flush_all_cb, i32 noundef 3572, i64 noundef %43, i64 noundef %44, ptr noundef nonnull @.str.65) #12
  br label %46

46:                                               ; preds = %H5D__flush_real.exit.thread, %38, %11, %3
  %.0 = phi i32 [ -1, %38 ], [ 0, %11 ], [ 0, %3 ], [ 0, %H5D__flush_real.exit.thread ]
  ret i32 %.0
}